; Function Attrs: mustprogress nounwind willreturn uwtable
define internal void @sdes(ptr noundef readonly captures(none) %0) #9 {
  %2 = getelementptr inbounds nuw i8, ptr %0, i64 144
  %3 = load ptr, ptr %2, align 8, !tbaa !43
  %.not = icmp eq ptr %3, null
  br i1 %.not, label %5, label %4

4:                                                ; preds = %1
  tail call void @free(ptr noundef nonnull %3) #16
  br label %5

5:                                                ; preds = %4, %1
  ret void
}